target datalayout = "e-m:e-p270:32:32-p271:32:32-p272:64:64-i64:64-i128:128-f80:128-n8:16:32:64-S128"
target triple = "x86_64-pc-linux-gnu"

%struct.rb_data_type_struct = type { ptr, %struct.anon.12, ptr, ptr, i64 }
%struct.anon.12 = type { ptr, ptr, ptr, ptr, [1 x ptr] }
%struct.weakkeymap = type { ptr }

@weakkeymap_type = internal constant %struct.rb_data_type_struct { ptr @.str.27, %struct.anon.12 { ptr @wkmap_mark, ptr @wkmap_free, ptr @wkmap_memsize, ptr @wkmap_compact, [1 x ptr] zeroinitializer }, ptr null, ptr null, i64 35 }, align 8

; Function Attrs: inlinehint nounwind sspstrong uwtable
define internal void @ruby_sized_xfree_inlined(ptr noundef %0, i64 noundef %1) #3 {
  %3 = alloca ptr, align 8
  %4 = alloca i64, align 8
  store ptr %0, ptr %3, align 8, !tbaa !33
  store i64 %1, ptr %4, align 8, !tbaa !7
  %5 = load ptr, ptr %3, align 8, !tbaa !33
  call void @ruby_xfree(ptr noundef %5)
  ret void
}

; Function Attrs: nounwind sspstrong uwtable
define internal i64 @wkmap_delete(i64 noundef %0, i64 noundef %1) #0 {
  %3 = alloca i64, align 8
  %4 = alloca i64, align 8
  %5 = alloca i64, align 8
  %6 = alloca ptr, align 8
  %7 = alloca i64, align 8
  %8 = alloca i64, align 8
  %9 = alloca i64, align 8
  %10 = alloca i64, align 8
  %11 = alloca i32, align 4
  store i64 %0, ptr %4, align 8, !tbaa !7
  store i64 %1, ptr %5, align 8, !tbaa !7
  call void @llvm.lifetime.start.p0(i64 8, ptr %6) #15
  %12 = load i64, ptr %4, align 8, !tbaa !7
  %13 = call ptr @rb_check_typeddata(i64 noundef %12, ptr noundef @weakkeymap_type)
  store ptr %13, ptr %6, align 8, !tbaa !20
  call void @llvm.lifetime.start.p0(i64 8, ptr %7) #15
  %14 = load i64, ptr %5, align 8, !tbaa !7
  store i64 %14, ptr %7, align 8, !tbaa !7
  call void @llvm.lifetime.start.p0(i64 8, ptr %8) #15
  %15 = ptrtoint ptr %7 to i64
  store i64 %15, ptr %8, align 8, !tbaa !7
  call void @llvm.lifetime.start.p0(i64 8, ptr %9) #15
  %16 = load ptr, ptr %6, align 8, !tbaa !20
  %17 = getelementptr inbounds nuw %struct.weakkeymap, ptr %16, i32 0, i32 0
  %18 = load ptr, ptr %17, align 8, !tbaa !22
  %19 = call i32 @rb_st_delete(ptr noundef %18, ptr noundef %8, ptr noundef %9)
  %20 = icmp ne i32 %19, 0
  br i1 %20, label %21, label %29

21:                                               ; preds = %2
  call void @llvm.lifetime.start.p0(i64 8, ptr %10) #15
  %22 = load i64, ptr %9, align 8, !tbaa !7
  store i64 %22, ptr %10, align 8, !tbaa !7
  %23 = load i64, ptr %4, align 8, !tbaa !7
  %24 = load i64, ptr %8, align 8, !tbaa !7
  %25 = inttoptr i64 %24 to ptr
  call void @rb_gc_remove_weak(i64 noundef %23, ptr noundef %25)
  %26 = load i64, ptr %8, align 8, !tbaa !7
  %27 = inttoptr i64 %26 to ptr
  call void @ruby_sized_xfree_inlined(ptr noundef %27, i64 noundef 8)
  %28 = load i64, ptr %10, align 8, !tbaa !7
  store i64 %28, ptr %3, align 8
  store i32 1, ptr %11, align 4
  call void @llvm.lifetime.end.p0(i64 8, ptr %10) #15
  br label %36

29:                                               ; preds = %2
  %30 = call i32 @rb_block_given_p()
  %31 = icmp ne i32 %30, 0
  br i1 %31, label %32, label %35

32:                                               ; preds = %29
  %33 = load i64, ptr %5, align 8, !tbaa !7
  %34 = call i64 @rb_yield(i64 noundef %33)
  store i64 %34, ptr %3, align 8
  store i32 1, ptr %11, align 4
  br label %36

35:                                               ; preds = %29
  store i64 4, ptr %3, align 8
  store i32 1, ptr %11, align 4
  br label %36

36:                                               ; preds = %35, %32, %21
  call void @llvm.lifetime.end.p0(i64 8, ptr %9) #15
  call void @llvm.lifetime.end.p0(i64 8, ptr %8) #15
  call void @llvm.lifetime.end.p0(i64 8, ptr %7) #15
  call void @llvm.lifetime.end.p0(i64 8, ptr %6) #15
  %37 = load i64, ptr %3, align 8
  ret i64 %37
}