; Function Attrs: nounwind sspstrong uwtable
define internal i64 @wkmap_delete(i64 noundef %0, i64 noundef %1) #0 {
  %3 = alloca i64, align 8
  %4 = alloca i64, align 8
  %5 = alloca i64, align 8
  %6 = tail call ptr @rb_check_typeddata(i64 noundef %0, ptr noundef nonnull @weakkeymap_type) #10
  call void @llvm.lifetime.start.p0(i64 8, ptr nonnull %3) #10
  store i64 %1, ptr %3, align 8, !tbaa !7
  call void @llvm.lifetime.start.p0(i64 8, ptr nonnull %4) #10
  %7 = ptrtoint ptr %3 to i64
  store i64 %7, ptr %4, align 8, !tbaa !7
  call void @llvm.lifetime.start.p0(i64 8, ptr nonnull %5) #10
  %8 = load ptr, ptr %6, align 8, !tbaa !30
  %9 = call i32 @rb_st_delete(ptr noundef %8, ptr noundef nonnull %4, ptr noundef nonnull %5) #10
  %.not = icmp eq i32 %9, 0
  br i1 %.not, label %16, label %10

10:                                               ; preds = %2
  %11 = load i64, ptr %5, align 8, !tbaa !7
  %12 = load i64, ptr %4, align 8, !tbaa !7
  %13 = inttoptr i64 %12 to ptr
  call void @rb_gc_remove_weak(i64 noundef %0, ptr noundef %13) #10
  %14 = load i64, ptr %4, align 8, !tbaa !7
  %15 = inttoptr i64 %14 to ptr
  call void @ruby_xfree(ptr noundef %15) #10
  br label %20

16:                                               ; preds = %2
  %17 = call i32 @rb_block_given_p() #10
  %.not6 = icmp eq i32 %17, 0
  br i1 %.not6, label %20, label %18

18:                                               ; preds = %16
  %19 = call i64 @rb_yield(i64 noundef %1) #10
  br label %20

20:                                               ; preds = %16, %18, %10
  %.0 = phi i64 [ %11, %10 ], [ %19, %18 ], [ 4, %16 ]
  call void @llvm.lifetime.end.p0(i64 8, ptr nonnull %5) #10
  call void @llvm.lifetime.end.p0(i64 8, ptr nonnull %4) #10
  call void @llvm.lifetime.end.p0(i64 8, ptr nonnull %3) #10
  ret i64 %.0
}